target datalayout = "e-m:e-p270:32:32-p271:32:32-p272:64:64-i64:64-i128:128-f80:128-n8:16:32:64-S128"
target triple = "x86_64-pc-linux-gnu"

%struct._packet_info = type { ptr, ptr, i32, i32, %struct.nstime_t, %struct.nstime_t, %struct.nstime_t, i8, ptr, ptr, ptr, ptr, %struct._address, %struct._address, %struct._address, %struct._address, %struct._address, %struct._address, i32, ptr, i8, [3 x i8], %struct.anon, i32, i32, i32, i32, ptr, i8, ptr, ptr, i16, i16, i32, i32, i16, i32, i32, ptr, ptr, ptr, i8, i8, i16, i16, i16, i32, i16, i16, ptr, ptr, ptr, ptr, ptr, i32, i32 }
%struct.nstime_t = type { i64, i32 }
%struct._address = type { i32, i32, ptr, ptr }
%struct.anon = type { i8, [3 x i8] }

@.str.1 = private unnamed_addr constant [8 x i8] c"Unknown\00", align 1
@hf_a21_element_identifier = internal global i32 0, align 4
@hf_a21_message_type = internal global i32 0, align 4
@hf_a21_element_length = internal global i32 0, align 4
@hf_a21_corr_id_corr_value = internal global i32 0, align 4
@ett_a21 = internal global i32 0, align 4
@ett_a21_corr_id = internal global i32 0, align 4
@.str.139 = private unnamed_addr constant [4 x i8] c"A21\00", align 1
@proto_a21 = internal global i32 0, align 4
@.str.158 = private unnamed_addr constant [19 x i8] c"A21 Correlation ID\00", align 1
@.str.159 = private unnamed_addr constant [4 x i8] c" %u\00", align 1
@.str.252 = private unnamed_addr constant [17 x i8] c"A21 Protocol: %s\00", align 1

; Function Attrs: null_pointer_is_valid sspstrong uwtable
define internal i32 @dissect_a21(ptr noundef %0, ptr noundef %1, ptr noundef %2, ptr noundef %3) #0 {
  %5 = alloca ptr, align 8
  %6 = alloca ptr, align 8
  %7 = alloca ptr, align 8
  %8 = alloca ptr, align 8
  %9 = alloca i8, align 1
  %10 = alloca i32, align 4
  %11 = alloca ptr, align 8
  %12 = alloca ptr, align 8
  %13 = alloca ptr, align 8
  %14 = alloca ptr, align 8
  %15 = alloca i32, align 4
  store ptr %0, ptr %5, align 8
  store ptr %1, ptr %6, align 8
  store ptr %2, ptr %7, align 8
  store ptr %3, ptr %8, align 8
  call void @llvm.lifetime.start.p0(i64 1, ptr %9) #3
  call void @llvm.lifetime.start.p0(i64 4, ptr %10) #3
  store i32 0, ptr %10, align 4
  call void @llvm.lifetime.start.p0(i64 8, ptr %11) #3
  call void @llvm.lifetime.start.p0(i64 8, ptr %12) #3
  call void @llvm.lifetime.start.p0(i64 8, ptr %13) #3
  call void @llvm.lifetime.start.p0(i64 8, ptr %14) #3
  call void @llvm.lifetime.start.p0(i64 4, ptr %15) #3
  %16 = load ptr, ptr %6, align 8
  %17 = getelementptr inbounds nuw %struct._packet_info, ptr %16, i32 0, i32 1
  %18 = load ptr, ptr %17, align 8
  call void @col_set_str(ptr noundef %18, i32 noundef 35, ptr noundef @.str.139)
  %19 = load ptr, ptr %6, align 8
  %20 = getelementptr inbounds nuw %struct._packet_info, ptr %19, i32 0, i32 1
  %21 = load ptr, ptr %20, align 8
  call void @col_clear(ptr noundef %21, i32 noundef 25)
  %22 = load ptr, ptr %5, align 8
  %23 = load i32, ptr %10, align 4
  %24 = call zeroext i8 @tvb_get_uint8(ptr noundef %22, i32 noundef %23)
  store i8 %24, ptr %9, align 1
  %25 = load ptr, ptr %6, align 8
  %26 = getelementptr inbounds nuw %struct._packet_info, ptr %25, i32 0, i32 1
  %27 = load ptr, ptr %26, align 8
  %28 = load i8, ptr %9, align 1
  %29 = zext i8 %28 to i32
  %30 = call ptr @val_to_str_const(i32 noundef %29, ptr noundef @a21_message_type_vals, ptr noundef @.str.1)
  call void @col_set_str(ptr noundef %27, i32 noundef 25, ptr noundef %30)
  %31 = load ptr, ptr %7, align 8
  %32 = load i32, ptr @proto_a21, align 4
  %33 = load ptr, ptr %5, align 8
  %34 = load i8, ptr %9, align 1
  %35 = zext i8 %34 to i32
  %36 = call ptr @val_to_str_const(i32 noundef %35, ptr noundef @a21_message_type_vals, ptr noundef @.str.1)
  %37 = call ptr (ptr, i32, ptr, i32, i32, ptr, ...) @proto_tree_add_protocol_format(ptr noundef %31, i32 noundef %32, ptr noundef %33, i32 noundef 0, i32 noundef -1, ptr noundef @.str.252, ptr noundef %36)
  store ptr %37, ptr %11, align 8
  %38 = load ptr, ptr %11, align 8
  %39 = load i32, ptr @ett_a21, align 4
  %40 = call ptr @proto_item_add_subtree(ptr noundef %38, i32 noundef %39)
  store ptr %40, ptr %13, align 8
  %41 = load ptr, ptr %13, align 8
  %42 = load i32, ptr @hf_a21_message_type, align 4
  %43 = load ptr, ptr %5, align 8
  %44 = load i32, ptr %10, align 4
  %45 = call ptr @proto_tree_add_item(ptr noundef %41, i32 noundef %42, ptr noundef %43, i32 noundef %44, i32 noundef 1, i32 noundef 0)
  %46 = load i32, ptr %10, align 4
  %47 = add i32 %46, 1
  store i32 %47, ptr %10, align 4
  %48 = load ptr, ptr %13, align 8
  %49 = load ptr, ptr %5, align 8
  %50 = load i32, ptr %10, align 4
  %51 = load i32, ptr @ett_a21_corr_id, align 4
  %52 = call ptr @proto_tree_add_subtree(ptr noundef %48, ptr noundef %49, i32 noundef %50, i32 noundef 6, i32 noundef %51, ptr noundef %12, ptr noundef @.str.158)
  store ptr %52, ptr %14, align 8
  %53 = load ptr, ptr %14, align 8
  %54 = load i32, ptr @hf_a21_element_identifier, align 4
  %55 = load ptr, ptr %5, align 8
  %56 = load i32, ptr %10, align 4
  %57 = call ptr @proto_tree_add_item(ptr noundef %53, i32 noundef %54, ptr noundef %55, i32 noundef %56, i32 noundef 1, i32 noundef 0)
  %58 = load i32, ptr %10, align 4
  %59 = add i32 %58, 1
  store i32 %59, ptr %10, align 4
  %60 = load ptr, ptr %14, align 8
  %61 = load i32, ptr @hf_a21_element_length, align 4
  %62 = load ptr, ptr %5, align 8
  %63 = load i32, ptr %10, align 4
  %64 = call ptr @proto_tree_add_item(ptr noundef %60, i32 noundef %61, ptr noundef %62, i32 noundef %63, i32 noundef 1, i32 noundef 0)
  %65 = load i32, ptr %10, align 4
  %66 = add i32 %65, 1
  store i32 %66, ptr %10, align 4
  %67 = load ptr, ptr %14, align 8
  %68 = load i32, ptr @hf_a21_corr_id_corr_value, align 4
  %69 = load ptr, ptr %5, align 8
  %70 = load i32, ptr %10, align 4
  %71 = call ptr @proto_tree_add_item_ret_uint(ptr noundef %67, i32 noundef %68, ptr noundef %69, i32 noundef %70, i32 noundef 4, i32 noundef 0, ptr noundef %15)
  %72 = load ptr, ptr %12, align 8
  %73 = load i32, ptr %15, align 4
  call void (ptr, ptr, ...) @proto_item_append_text(ptr noundef %72, ptr noundef @.str.159, i32 noundef %73)
  %74 = load i32, ptr %10, align 4
  %75 = add i32 %74, 4
  store i32 %75, ptr %10, align 4
  %76 = load ptr, ptr %5, align 8
  %77 = load ptr, ptr %6, align 8
  %78 = load ptr, ptr %7, align 8
  %79 = load ptr, ptr %13, align 8
  %80 = load i32, ptr %10, align 4
  %81 = load i8, ptr %9, align 1
  call void @dissect_a21_ie_common(ptr noundef %76, ptr noundef %77, ptr noundef %78, ptr noundef %79, i32 noundef %80, i8 noundef zeroext %81)
  %82 = load ptr, ptr %5, align 8
  %83 = call i32 @tvb_captured_length(ptr noundef %82)
  call void @llvm.lifetime.end.p0(i64 4, ptr %15) #3
  call void @llvm.lifetime.end.p0(i64 8, ptr %14) #3
  call void @llvm.lifetime.end.p0(i64 8, ptr %13) #3
  call void @llvm.lifetime.end.p0(i64 8, ptr %12) #3
  call void @llvm.lifetime.end.p0(i64 8, ptr %11) #3
  call void @llvm.lifetime.end.p0(i64 4, ptr %10) #3
  call void @llvm.lifetime.end.p0(i64 1, ptr %9) #3
  ret i32 %83
}