; Function Attrs: null_pointer_is_valid sspstrong uwtable
define internal i32 @dissect_a21(ptr noundef %0, ptr noundef %1, ptr noundef %2, ptr readnone captures(none) %3) #0 {
  %5 = alloca ptr, align 8
  %6 = alloca i32, align 4
  call void @llvm.lifetime.start.p0(i64 8, ptr nonnull %5) #3
  call void @llvm.lifetime.start.p0(i64 4, ptr nonnull %6) #3
  %7 = getelementptr inbounds nuw i8, ptr %1, i64 8
  %8 = load ptr, ptr %7, align 8
  tail call void @col_set_str(ptr noundef %8, i32 noundef 35, ptr noundef nonnull @.str.139)
  %9 = load ptr, ptr %7, align 8
  tail call void @col_clear(ptr noundef %9, i32 noundef 25)
  %10 = tail call zeroext i8 @tvb_get_uint8(ptr noundef %0, i32 noundef 0)
  %11 = load ptr, ptr %7, align 8
  %12 = zext i8 %10 to i32
  %13 = tail call ptr @val_to_str_const(i32 noundef %12, ptr noundef nonnull @a21_message_type_vals, ptr noundef nonnull @.str.1)
  tail call void @col_set_str(ptr noundef %11, i32 noundef 25, ptr noundef %13)
  %14 = load i32, ptr @proto_a21, align 4
  %15 = tail call ptr @val_to_str_const(i32 noundef %12, ptr noundef nonnull @a21_message_type_vals, ptr noundef nonnull @.str.1)
  %16 = tail call ptr (ptr, i32, ptr, i32, i32, ptr, ...) @proto_tree_add_protocol_format(ptr noundef %2, i32 noundef %14, ptr noundef %0, i32 noundef 0, i32 noundef -1, ptr noundef nonnull @.str.252, ptr noundef %15)
  %17 = load i32, ptr @ett_a21, align 4
  %18 = tail call ptr @proto_item_add_subtree(ptr noundef %16, i32 noundef %17)
  %19 = load i32, ptr @hf_a21_message_type, align 4
  %20 = tail call ptr @proto_tree_add_item(ptr noundef %18, i32 noundef %19, ptr noundef %0, i32 noundef 0, i32 noundef 1, i32 noundef 0)
  %21 = load i32, ptr @ett_a21_corr_id, align 4
  %22 = call ptr @proto_tree_add_subtree(ptr noundef %18, ptr noundef %0, i32 noundef 1, i32 noundef 6, i32 noundef %21, ptr noundef nonnull %5, ptr noundef nonnull @.str.158)
  %23 = load i32, ptr @hf_a21_element_identifier, align 4
  %24 = call ptr @proto_tree_add_item(ptr noundef %22, i32 noundef %23, ptr noundef %0, i32 noundef 1, i32 noundef 1, i32 noundef 0)
  %25 = load i32, ptr @hf_a21_element_length, align 4
  %26 = call ptr @proto_tree_add_item(ptr noundef %22, i32 noundef %25, ptr noundef %0, i32 noundef 2, i32 noundef 1, i32 noundef 0)
  %27 = load i32, ptr @hf_a21_corr_id_corr_value, align 4
  %28 = call ptr @proto_tree_add_item_ret_uint(ptr noundef %22, i32 noundef %27, ptr noundef %0, i32 noundef 3, i32 noundef 4, i32 noundef 0, ptr noundef nonnull %6)
  %29 = load ptr, ptr %5, align 8
  %30 = load i32, ptr %6, align 4
  call void (ptr, ptr, ...) @proto_item_append_text(ptr noundef %29, ptr noundef nonnull @.str.159, i32 noundef %30)
  call void @dissect_a21_ie_common(ptr noundef %0, ptr noundef %1, ptr noundef %2, ptr noundef %18, i32 noundef 7, i8 zeroext poison)
  %31 = call i32 @tvb_captured_length(ptr noundef %0)
  call void @llvm.lifetime.end.p0(i64 4, ptr nonnull %6) #3
  call void @llvm.lifetime.end.p0(i64 8, ptr nonnull %5) #3
  ret i32 %31
}